target datalayout = "e-m:e-p270:32:32-p271:32:32-p272:64:64-i64:64-i128:128-f80:128-n8:16:32:64-S128"
target triple = "x86_64-pc-linux-gnu"

@.str.22 = private unnamed_addr constant [15 x i8] c"encoding error\00", align 1

; Function Attrs: nounwind uwtable
define internal i32 @get_surrogateescape(i32 noundef %0, ptr noundef %1) #0 {
  %3 = alloca i32, align 4
  %4 = alloca i32, align 4
  %5 = alloca ptr, align 8
  store i32 %0, ptr %4, align 4, !tbaa !4
  store ptr %1, ptr %5, align 8, !tbaa !177
  %6 = load i32, ptr %4, align 4, !tbaa !4
  switch i32 %6, label %11 [
    i32 1, label %7
    i32 2, label %9
  ]

7:                                                ; preds = %2
  %8 = load ptr, ptr %5, align 8, !tbaa !177
  store i32 0, ptr %8, align 4, !tbaa !4
  store i32 0, ptr %3, align 4
  br label %12

9:                                                ; preds = %2
  %10 = load ptr, ptr %5, align 8, !tbaa !177
  store i32 1, ptr %10, align 4, !tbaa !4
  store i32 0, ptr %3, align 4
  br label %12

11:                                               ; preds = %2
  store i32 -1, ptr %3, align 4
  br label %12

12:                                               ; preds = %11, %9, %7
  %13 = load i32, ptr %3, align 4
  ret i32 %13
}

; Function Attrs: nounwind uwtable
define internal i32 @encode_current_locale(ptr noundef %0, ptr noundef %1, ptr noundef %2, ptr noundef %3, i32 noundef %4, i32 noundef %5) #0 {
  %7 = alloca i32, align 4
  %8 = alloca ptr, align 8
  %9 = alloca ptr, align 8
  %10 = alloca ptr, align 8
  %11 = alloca ptr, align 8
  %12 = alloca i32, align 4
  %13 = alloca i32, align 4
  %14 = alloca i64, align 8
  %15 = alloca ptr, align 8
  %16 = alloca ptr, align 8
  %17 = alloca i64, align 8
  %18 = alloca i64, align 8
  %19 = alloca i64, align 8
  %20 = alloca i32, align 4
  %21 = alloca [2 x i32], align 4
  %22 = alloca i32, align 4
  %23 = alloca i32, align 4
  store ptr %0, ptr %8, align 8, !tbaa !177
  store ptr %1, ptr %9, align 8, !tbaa !182
  store ptr %2, ptr %10, align 8, !tbaa !189
  store ptr %3, ptr %11, align 8, !tbaa !182
  store i32 %4, ptr %12, align 4, !tbaa !4
  store i32 %5, ptr %13, align 4, !tbaa !4
  call void @llvm.lifetime.start.p0(i64 8, ptr %14) #10
  %24 = load ptr, ptr %8, align 8, !tbaa !177
  %25 = call i64 @wcslen(ptr noundef %24) #11
  store i64 %25, ptr %14, align 8, !tbaa !186
  call void @llvm.lifetime.start.p0(i64 8, ptr %15) #10
  store ptr null, ptr %15, align 8, !tbaa !180
  call void @llvm.lifetime.start.p0(i64 8, ptr %16) #10
  store ptr null, ptr %16, align 8, !tbaa !180
  call void @llvm.lifetime.start.p0(i64 8, ptr %17) #10
  call void @llvm.lifetime.start.p0(i64 8, ptr %18) #10
  call void @llvm.lifetime.start.p0(i64 8, ptr %19) #10
  call void @llvm.lifetime.start.p0(i64 4, ptr %20) #10
  call void @llvm.lifetime.start.p0(i64 8, ptr %21) #10
  call void @llvm.lifetime.start.p0(i64 4, ptr %22) #10
  %26 = load i32, ptr %13, align 4, !tbaa !4
  %27 = call i32 @get_surrogateescape(i32 noundef %26, ptr noundef %22)
  %28 = icmp slt i32 %27, 0
  br i1 %28, label %29, label %30

29:                                               ; preds = %6
  store i32 -3, ptr %7, align 4
  store i32 1, ptr %23, align 4
  br label %147

30:                                               ; preds = %6
  store i64 0, ptr %18, align 8, !tbaa !186
  %31 = getelementptr [2 x i32], ptr %21, i64 0, i64 1
  store i32 0, ptr %31, align 4, !tbaa !4
  br label %32

32:                                               ; preds = %123, %30
  br label %33

33:                                               ; preds = %32
  store i64 0, ptr %17, align 8, !tbaa !186
  br label %34

34:                                               ; preds = %100, %33
  %35 = load i64, ptr %17, align 8, !tbaa !186
  %36 = load i64, ptr %14, align 8, !tbaa !186
  %37 = icmp ult i64 %35, %36
  br i1 %37, label %38, label %103

38:                                               ; preds = %34
  %39 = load ptr, ptr %8, align 8, !tbaa !177
  %40 = load i64, ptr %17, align 8, !tbaa !186
  %41 = getelementptr i32, ptr %39, i64 %40
  %42 = load i32, ptr %41, align 4, !tbaa !4
  store i32 %42, ptr %20, align 4, !tbaa !4
  %43 = load i32, ptr %20, align 4, !tbaa !4
  %44 = icmp sge i32 %43, 56448
  br i1 %44, label %45, label %67

45:                                               ; preds = %38
  %46 = load i32, ptr %20, align 4, !tbaa !4
  %47 = icmp sle i32 %46, 56575
  br i1 %47, label %48, label %67

48:                                               ; preds = %45
  %49 = load i32, ptr %22, align 4, !tbaa !4
  %50 = icmp ne i32 %49, 0
  br i1 %50, label %52, label %51

51:                                               ; preds = %48
  br label %128

52:                                               ; preds = %48
  %53 = load ptr, ptr %16, align 8, !tbaa !180
  %54 = icmp ne ptr %53, null
  br i1 %54, label %55, label %63

55:                                               ; preds = %52
  %56 = load i32, ptr %20, align 4, !tbaa !4
  %57 = sub i32 %56, 56320
  %58 = trunc i32 %57 to i8
  %59 = load ptr, ptr %16, align 8, !tbaa !180
  %60 = getelementptr i8, ptr %59, i32 1
  store ptr %60, ptr %16, align 8, !tbaa !180
  store i8 %58, ptr %59, align 1, !tbaa !181
  %61 = load i64, ptr %18, align 8, !tbaa !186
  %62 = add i64 %61, -1
  store i64 %62, ptr %18, align 8, !tbaa !186
  br label %66

63:                                               ; preds = %52
  %64 = load i64, ptr %18, align 8, !tbaa !186
  %65 = add i64 %64, 1
  store i64 %65, ptr %18, align 8, !tbaa !186
  br label %66

66:                                               ; preds = %63, %55
  br label %100

67:                                               ; preds = %45, %38
  %68 = load i32, ptr %20, align 4, !tbaa !4
  %69 = getelementptr [2 x i32], ptr %21, i64 0, i64 0
  store i32 %68, ptr %69, align 4, !tbaa !4
  %70 = load ptr, ptr %16, align 8, !tbaa !180
  %71 = icmp ne ptr %70, null
  br i1 %71, label %72, label %77

72:                                               ; preds = %67
  %73 = load ptr, ptr %16, align 8, !tbaa !180
  %74 = getelementptr inbounds [2 x i32], ptr %21, i64 0, i64 0
  %75 = load i64, ptr %18, align 8, !tbaa !186
  %76 = call i64 @wcstombs(ptr noundef %73, ptr noundef %74, i64 noundef %75) #10
  store i64 %76, ptr %19, align 8, !tbaa !186
  br label %80

77:                                               ; preds = %67
  %78 = getelementptr inbounds [2 x i32], ptr %21, i64 0, i64 0
  %79 = call i64 @wcstombs(ptr noundef null, ptr noundef %78, i64 noundef 0) #10
  store i64 %79, ptr %19, align 8, !tbaa !186
  br label %80

80:                                               ; preds = %77, %72
  %81 = load i64, ptr %19, align 8, !tbaa !186
  %82 = icmp eq i64 %81, -1
  br i1 %82, label %83, label %84

83:                                               ; preds = %80
  br label %128

84:                                               ; preds = %80
  %85 = load ptr, ptr %16, align 8, !tbaa !180
  %86 = icmp ne ptr %85, null
  br i1 %86, label %87, label %94

87:                                               ; preds = %84
  %88 = load i64, ptr %19, align 8, !tbaa !186
  %89 = load ptr, ptr %16, align 8, !tbaa !180
  %90 = getelementptr i8, ptr %89, i64 %88
  store ptr %90, ptr %16, align 8, !tbaa !180
  %91 = load i64, ptr %19, align 8, !tbaa !186
  %92 = load i64, ptr %18, align 8, !tbaa !186
  %93 = sub i64 %92, %91
  store i64 %93, ptr %18, align 8, !tbaa !186
  br label %98

94:                                               ; preds = %84
  %95 = load i64, ptr %19, align 8, !tbaa !186
  %96 = load i64, ptr %18, align 8, !tbaa !186
  %97 = add i64 %96, %95
  store i64 %97, ptr %18, align 8, !tbaa !186
  br label %98

98:                                               ; preds = %94, %87
  br label %99

99:                                               ; preds = %98
  br label %100

100:                                              ; preds = %99, %66
  %101 = load i64, ptr %17, align 8, !tbaa !186
  %102 = add i64 %101, 1
  store i64 %102, ptr %17, align 8, !tbaa !186
  br label %34, !llvm.loop !216

103:                                              ; preds = %34
  %104 = load ptr, ptr %15, align 8, !tbaa !180
  %105 = icmp ne ptr %104, null
  br i1 %105, label %106, label %108

106:                                              ; preds = %103
  %107 = load ptr, ptr %16, align 8, !tbaa !180
  store i8 0, ptr %107, align 1, !tbaa !181
  br label %125

108:                                              ; preds = %103
  %109 = load i64, ptr %18, align 8, !tbaa !186
  %110 = add i64 %109, 1
  store i64 %110, ptr %18, align 8, !tbaa !186
  %111 = load i32, ptr %12, align 4, !tbaa !4
  %112 = icmp ne i32 %111, 0
  br i1 %112, label %113, label %116

113:                                              ; preds = %108
  %114 = load i64, ptr %18, align 8, !tbaa !186
  %115 = call ptr @PyMem_RawMalloc(i64 noundef %114)
  store ptr %115, ptr %15, align 8, !tbaa !180
  br label %119

116:                                              ; preds = %108
  %117 = load i64, ptr %18, align 8, !tbaa !186
  %118 = call ptr @PyMem_Malloc(i64 noundef %117)
  store ptr %118, ptr %15, align 8, !tbaa !180
  br label %119

119:                                              ; preds = %116, %113
  %120 = load ptr, ptr %15, align 8, !tbaa !180
  %121 = icmp eq ptr %120, null
  br i1 %121, label %122, label %123

122:                                              ; preds = %119
  store i32 -1, ptr %7, align 4
  store i32 1, ptr %23, align 4
  br label %147

123:                                              ; preds = %119
  %124 = load ptr, ptr %15, align 8, !tbaa !180
  store ptr %124, ptr %16, align 8, !tbaa !180
  br label %32

125:                                              ; preds = %106
  %126 = load ptr, ptr %15, align 8, !tbaa !180
  %127 = load ptr, ptr %9, align 8, !tbaa !182
  store ptr %126, ptr %127, align 8, !tbaa !180
  store i32 0, ptr %7, align 4
  store i32 1, ptr %23, align 4
  br label %147

128:                                              ; preds = %83, %51
  %129 = load i32, ptr %12, align 4, !tbaa !4
  %130 = icmp ne i32 %129, 0
  br i1 %130, label %131, label %133

131:                                              ; preds = %128
  %132 = load ptr, ptr %15, align 8, !tbaa !180
  call void @PyMem_RawFree(ptr noundef %132)
  br label %135

133:                                              ; preds = %128
  %134 = load ptr, ptr %15, align 8, !tbaa !180
  call void @PyMem_Free(ptr noundef %134)
  br label %135

135:                                              ; preds = %133, %131
  %136 = load ptr, ptr %10, align 8, !tbaa !189
  %137 = icmp ne ptr %136, null
  br i1 %137, label %138, label %141

138:                                              ; preds = %135
  %139 = load i64, ptr %17, align 8, !tbaa !186
  %140 = load ptr, ptr %10, align 8, !tbaa !189
  store i64 %139, ptr %140, align 8, !tbaa !186
  br label %141

141:                                              ; preds = %138, %135
  %142 = load ptr, ptr %11, align 8, !tbaa !182
  %143 = icmp ne ptr %142, null
  br i1 %143, label %144, label %146

144:                                              ; preds = %141
  %145 = load ptr, ptr %11, align 8, !tbaa !182
  store ptr @.str.22, ptr %145, align 8, !tbaa !180
  br label %146

146:                                              ; preds = %144, %141
  store i32 -2, ptr %7, align 4
  store i32 1, ptr %23, align 4
  br label %147

147:                                              ; preds = %146, %125, %122, %29
  call void @llvm.lifetime.end.p0(i64 4, ptr %22) #10
  call void @llvm.lifetime.end.p0(i64 8, ptr %21) #10
  call void @llvm.lifetime.end.p0(i64 4, ptr %20) #10
  call void @llvm.lifetime.end.p0(i64 8, ptr %19) #10
  call void @llvm.lifetime.end.p0(i64 8, ptr %18) #10
  call void @llvm.lifetime.end.p0(i64 8, ptr %17) #10
  call void @llvm.lifetime.end.p0(i64 8, ptr %16) #10
  call void @llvm.lifetime.end.p0(i64 8, ptr %15) #10
  call void @llvm.lifetime.end.p0(i64 8, ptr %14) #10
  %148 = load i32, ptr %7, align 4
  ret i32 %148
}