; Function Attrs: nounwind uwtable
define internal fastcc range(i32 -3, 1) i32 @encode_current_locale(ptr noundef readonly captures(none) %0, ptr noundef writeonly captures(none) %1, ptr noundef writeonly %2, ptr noundef writeonly %3, i32 noundef range(i32 0, 2) %4, i32 noundef %5) unnamed_addr #0 {
  %7 = alloca [2 x i32], align 4
  %8 = tail call i64 @wcslen(ptr noundef %0) #18
  call void @llvm.lifetime.start.p0(i64 8, ptr nonnull %7) #17
  switch i32 %5, label %get_surrogateescape.exit [
    i32 1, label %.sink.split.i
    i32 2, label %.thread
  ]

.sink.split.i:                                    ; preds = %6
  %9 = getelementptr inbounds nuw i8, ptr %7, i64 4
  store i32 0, ptr %9, align 4, !tbaa !180
  %.not134 = icmp eq i64 %8, 0
  %.not56 = icmp eq i32 %4, 0
  br i1 %.not134, label %.split92, label %.lr.ph.us.us

.thread:                                          ; preds = %6
  %10 = getelementptr inbounds nuw i8, ptr %7, i64 4
  store i32 0, ptr %10, align 4, !tbaa !180
  %.not134154 = icmp eq i64 %8, 0
  %.not56155 = icmp eq i32 %4, 0
  br i1 %.not134154, label %.split92, label %.lr.ph.us

.lr.ph.us.us:                                     ; preds = %.sink.split.i, %17
  %.048.us.us = phi ptr [ %.152.us.us, %17 ], [ null, %.sink.split.i ]
  %.046.us.us = phi i64 [ %12, %17 ], [ 0, %.sink.split.i ]
  br label %19

11:                                               ; preds = %._crit_edge.split.us.us.us
  %12 = add i64 %.2.us.us.us, 1
  br i1 %.not56, label %15, label %13

13:                                               ; preds = %11
  %14 = call ptr @PyMem_RawMalloc(i64 noundef %12) #17
  br label %17

15:                                               ; preds = %11
  %16 = call ptr @PyMem_Malloc(i64 noundef %12) #17
  br label %17

17:                                               ; preds = %15, %13
  %.152.us.us = phi ptr [ %14, %13 ], [ %16, %15 ]
  %18 = icmp eq ptr %.152.us.us, null
  br i1 %18, label %get_surrogateescape.exit, label %.lr.ph.us.us

19:                                               ; preds = %33, %.lr.ph.us.us
  %.180.us.us.us = phi i64 [ %.046.us.us, %.lr.ph.us.us ], [ %.2.us.us.us, %33 ]
  %.04779.us.us.us = phi i64 [ 0, %.lr.ph.us.us ], [ %34, %33 ]
  %.14978.us.us.us = phi ptr [ %.048.us.us, %.lr.ph.us.us ], [ %.250.us.us.us, %33 ]
  %20 = getelementptr i32, ptr %0, i64 %.04779.us.us.us
  %21 = load i32, ptr %20, align 4, !tbaa !180
  %22 = and i32 %21, -128
  %or.cond.us.us.us = icmp eq i32 %22, 56448
  br i1 %or.cond.us.us.us, label %.split.us, label %23

23:                                               ; preds = %19
  store i32 %21, ptr %7, align 4, !tbaa !180
  %.not57.us.us.us = icmp eq ptr %.14978.us.us.us, null
  br i1 %.not57.us.us.us, label %28, label %.thread.us.us.us

.thread.us.us.us:                                 ; preds = %23
  %24 = call i64 @wcstombs(ptr noundef nonnull %.14978.us.us.us, ptr noundef nonnull %7, i64 noundef %.180.us.us.us) #17
  %25 = icmp eq i64 %24, -1
  br i1 %25, label %.split.us, label %.thread69.us.us.us

.thread69.us.us.us:                               ; preds = %.thread.us.us.us
  %26 = getelementptr i8, ptr %.14978.us.us.us, i64 %24
  %27 = sub i64 %.180.us.us.us, %24
  br label %33

28:                                               ; preds = %23
  %29 = call i64 @wcstombs(ptr noundef null, ptr noundef nonnull %7, i64 noundef 0) #17
  %30 = icmp eq i64 %29, -1
  br i1 %30, label %.split.us, label %31

31:                                               ; preds = %28
  %32 = add i64 %29, %.180.us.us.us
  br label %33

33:                                               ; preds = %31, %.thread69.us.us.us
  %.250.us.us.us = phi ptr [ %26, %.thread69.us.us.us ], [ null, %31 ]
  %.2.us.us.us = phi i64 [ %27, %.thread69.us.us.us ], [ %32, %31 ]
  %34 = add nuw i64 %.04779.us.us.us, 1
  %exitcond152.not = icmp eq i64 %34, %8
  br i1 %exitcond152.not, label %._crit_edge.split.us.us.us, label %19, !llvm.loop !204

._crit_edge.split.us.us.us:                       ; preds = %33
  %.not.us.us = icmp eq ptr %.048.us.us, null
  br i1 %.not.us.us, label %11, label %.split107.us

.lr.ph.us:                                        ; preds = %.thread, %41
  %.048.us = phi ptr [ %.152.us, %41 ], [ null, %.thread ]
  %.046.us = phi i64 [ %36, %41 ], [ 0, %.thread ]
  br label %43

35:                                               ; preds = %._crit_edge.split.us102
  %36 = add i64 %.2.us101, 1
  br i1 %.not56155, label %39, label %37

37:                                               ; preds = %35
  %38 = call ptr @PyMem_RawMalloc(i64 noundef %36) #17
  br label %41

39:                                               ; preds = %35
  %40 = call ptr @PyMem_Malloc(i64 noundef %36) #17
  br label %41

41:                                               ; preds = %39, %37
  %.152.us = phi ptr [ %38, %37 ], [ %40, %39 ]
  %42 = icmp eq ptr %.152.us, null
  br i1 %42, label %get_surrogateescape.exit, label %.lr.ph.us

43:                                               ; preds = %.lr.ph.us, %64
  %.180.us93 = phi i64 [ %.046.us, %.lr.ph.us ], [ %.2.us101, %64 ]
  %.04779.us94 = phi i64 [ 0, %.lr.ph.us ], [ %65, %64 ]
  %.14978.us95 = phi ptr [ %.048.us, %.lr.ph.us ], [ %.250.us100, %64 ]
  %44 = getelementptr i32, ptr %0, i64 %.04779.us94
  %45 = load i32, ptr %44, align 4, !tbaa !180
  %46 = and i32 %45, -128
  %or.cond.us96 = icmp eq i32 %46, 56448
  br i1 %or.cond.us96, label %57, label %47

47:                                               ; preds = %43
  store i32 %45, ptr %7, align 4, !tbaa !180
  %.not57.us97 = icmp eq ptr %.14978.us95, null
  br i1 %.not57.us97, label %52, label %.thread.us98

.thread.us98:                                     ; preds = %47
  %48 = call i64 @wcstombs(ptr noundef nonnull %.14978.us95, ptr noundef nonnull %7, i64 noundef %.180.us93) #17
  %49 = icmp eq i64 %48, -1
  br i1 %49, label %.split.us, label %.thread69.us99

.thread69.us99:                                   ; preds = %.thread.us98
  %50 = getelementptr i8, ptr %.14978.us95, i64 %48
  %51 = sub i64 %.180.us93, %48
  br label %64

52:                                               ; preds = %47
  %53 = call i64 @wcstombs(ptr noundef null, ptr noundef nonnull %7, i64 noundef 0) #17
  %54 = icmp eq i64 %53, -1
  br i1 %54, label %.split.us, label %55

55:                                               ; preds = %52
  %56 = add i64 %53, %.180.us93
  br label %64

57:                                               ; preds = %43
  %.not62.us = icmp eq ptr %.14978.us95, null
  br i1 %.not62.us, label %62, label %58

58:                                               ; preds = %57
  %59 = trunc i32 %45 to i8
  %60 = getelementptr i8, ptr %.14978.us95, i64 1
  store i8 %59, ptr %.14978.us95, align 1, !tbaa !175
  %61 = add i64 %.180.us93, -1
  br label %64

62:                                               ; preds = %57
  %63 = add i64 %.180.us93, 1
  br label %64

64:                                               ; preds = %62, %58, %55, %.thread69.us99
  %.250.us100 = phi ptr [ %60, %58 ], [ null, %62 ], [ %50, %.thread69.us99 ], [ null, %55 ]
  %.2.us101 = phi i64 [ %61, %58 ], [ %63, %62 ], [ %51, %.thread69.us99 ], [ %56, %55 ]
  %65 = add nuw i64 %.04779.us94, 1
  %exitcond.not = icmp eq i64 %65, %8
  br i1 %exitcond.not, label %._crit_edge.split.us102, label %43, !llvm.loop !204

._crit_edge.split.us102:                          ; preds = %64
  %.not.us = icmp eq ptr %.048.us, null
  br i1 %.not.us, label %35, label %.split107.us

.split92:                                         ; preds = %.thread, %.sink.split.i
  %.not56158 = phi i1 [ %.not56155, %.thread ], [ %.not56, %.sink.split.i ]
  br i1 %.not56158, label %.split92.split.us, label %.split92.split

.split92.split.us:                                ; preds = %.split92, %66
  %.048.us120 = phi ptr [ %68, %66 ], [ null, %.split92 ]
  %.046.us121 = phi i64 [ %67, %66 ], [ 0, %.split92 ]
  %.not.us122 = icmp eq ptr %.048.us120, null
  br i1 %.not.us122, label %66, label %.split107.us

66:                                               ; preds = %.split92.split.us
  %67 = add i64 %.046.us121, 1
  %68 = tail call ptr @PyMem_Malloc(i64 noundef %67) #17
  %69 = icmp eq ptr %68, null
  br i1 %69, label %get_surrogateescape.exit, label %.split92.split.us

.split92.split:                                   ; preds = %.split92, %70
  %.048 = phi ptr [ %72, %70 ], [ null, %.split92 ]
  %.046 = phi i64 [ %71, %70 ], [ 0, %.split92 ]
  %.not = icmp eq ptr %.048, null
  br i1 %.not, label %70, label %.split107.us

.split107.us:                                     ; preds = %._crit_edge.split.us102, %._crit_edge.split.us.us.us, %.split92.split, %.split92.split.us
  %.us-phi108 = phi ptr [ %.048.us120, %.split92.split.us ], [ %.048, %.split92.split ], [ %.048.us.us, %._crit_edge.split.us.us.us ], [ %.048.us, %._crit_edge.split.us102 ]
  %.us-phi109 = phi ptr [ %.048.us120, %.split92.split.us ], [ %.048, %.split92.split ], [ %.250.us.us.us, %._crit_edge.split.us.us.us ], [ %.250.us100, %._crit_edge.split.us102 ]
  store i8 0, ptr %.us-phi109, align 1, !tbaa !175
  store ptr %.us-phi108, ptr %1, align 8, !tbaa !177
  br label %get_surrogateescape.exit

70:                                               ; preds = %.split92.split
  %71 = add i64 %.046, 1
  %72 = tail call ptr @PyMem_RawMalloc(i64 noundef %71) #17
  %73 = icmp eq ptr %72, null
  br i1 %73, label %get_surrogateescape.exit, label %.split92.split

.split.us:                                        ; preds = %52, %.thread.us98, %19, %28, %.thread.us.us.us
  %.not56159 = phi i1 [ %.not56, %.thread.us.us.us ], [ %.not56, %28 ], [ %.not56, %19 ], [ %.not56155, %.thread.us98 ], [ %.not56155, %52 ]
  %.us-phi = phi ptr [ %.048.us.us, %.thread.us.us.us ], [ %.048.us.us, %28 ], [ %.048.us.us, %19 ], [ %.048.us, %.thread.us98 ], [ %.048.us, %52 ]
  %.us-phi82 = phi i64 [ %.04779.us.us.us, %.thread.us.us.us ], [ %.04779.us.us.us, %28 ], [ %.04779.us.us.us, %19 ], [ %.04779.us94, %.thread.us98 ], [ %.04779.us94, %52 ]
  br i1 %.not56159, label %75, label %74

74:                                               ; preds = %.split.us
  call void @PyMem_RawFree(ptr noundef %.us-phi) #17
  br label %76

75:                                               ; preds = %.split.us
  call void @PyMem_Free(ptr noundef %.us-phi) #17
  br label %76

76:                                               ; preds = %75, %74
  %.not60 = icmp eq ptr %2, null
  br i1 %.not60, label %78, label %77

77:                                               ; preds = %76
  store i64 %.us-phi82, ptr %2, align 8, !tbaa !183
  br label %78

78:                                               ; preds = %77, %76
  %.not61 = icmp eq ptr %3, null
  br i1 %.not61, label %get_surrogateescape.exit, label %79

79:                                               ; preds = %78
  store ptr @.str.22, ptr %3, align 8, !tbaa !177
  br label %get_surrogateescape.exit

get_surrogateescape.exit:                         ; preds = %41, %17, %70, %66, %6, %78, %79, %.split107.us
  %.0 = phi i32 [ 0, %.split107.us ], [ -2, %79 ], [ -2, %78 ], [ -3, %6 ], [ -1, %66 ], [ -1, %70 ], [ -1, %17 ], [ -1, %41 ]
  call void @llvm.lifetime.end.p0(i64 8, ptr nonnull %7) #17
  ret i32 %.0
}